
periph-p-SARADC:     file format elf32-littleriscv


Disassembly of section .ivt:

00008000 <.ivt>:
    8000:	a01fd06f          	j	5a00 <_start-0x2800>
    8004:	bfdfd06f          	j	5c00 <_start-0x2600>
    8008:	df9fd06f          	j	5e00 <_start-0x2400>
    800c:	ff5fd06f          	j	6000 <_start-0x2200>
    8010:	9f0fe06f          	j	6200 <_start-0x2000>
    8014:	becfe06f          	j	6400 <_start-0x1e00>
    8018:	de8fe06f          	j	6600 <_start-0x1c00>
    801c:	fe4fe06f          	j	6800 <_start-0x1a00>
    8020:	9e1fe06f          	j	6a00 <_start-0x1800>
    8024:	3dd0706f          	j	fc00 <fromhost+0x77c0>
    8028:	5d90706f          	j	fe00 <_end>
    802c:	fd5fe06f          	j	7000 <_start-0x1200>
    8030:	9d0ff06f          	j	7200 <_start-0x1000>
    8034:	3cc0706f          	j	f400 <fromhost+0x6fc0>
    8038:	5c80706f          	j	f600 <fromhost+0x71c0>
    803c:	7c40706f          	j	f800 <fromhost+0x73c0>
    8040:	9c1ff06f          	j	7a00 <_start-0x800>
    8044:	bbdff06f          	j	7c00 <_start-0x600>
    8048:	db9ff06f          	j	7e00 <_start-0x400>
    804c:	fb5ff06f          	j	8000 <_start-0x200>
    8050:	1b00006f          	j	8200 <_start>
    8054:	3ac0006f          	j	8400 <tohost>
    8058:	5a80006f          	j	8600 <fromhost+0x1c0>
    805c:	7a40006f          	j	8800 <fromhost+0x3c0>
    8060:	1a10006f          	j	8a00 <fromhost+0x5c0>
    8064:	39d0006f          	j	8c00 <fromhost+0x7c0>
    8068:	5990006f          	j	8e00 <fromhost+0x9c0>
    806c:	7950006f          	j	9000 <fromhost+0xbc0>
    8070:	1900106f          	j	9200 <fromhost+0xdc0>
    8074:	38c0106f          	j	9400 <fromhost+0xfc0>
    8078:	5880106f          	j	9600 <fromhost+0x11c0>
    807c:	7840106f          	j	9800 <fromhost+0x13c0>
    8080:	1810106f          	j	9a00 <fromhost+0x15c0>
    8084:	37d0106f          	j	9c00 <fromhost+0x17c0>
    8088:	5790106f          	j	9e00 <fromhost+0x19c0>
    808c:	7750106f          	j	a000 <fromhost+0x1bc0>
    8090:	1700206f          	j	a200 <fromhost+0x1dc0>
    8094:	36c0206f          	j	a400 <fromhost+0x1fc0>
    8098:	5680206f          	j	a600 <fromhost+0x21c0>
    809c:	7640206f          	j	a800 <fromhost+0x23c0>
    80a0:	1610206f          	j	aa00 <fromhost+0x25c0>
    80a4:	35d0206f          	j	ac00 <fromhost+0x27c0>
    80a8:	5590206f          	j	ae00 <fromhost+0x29c0>
    80ac:	7550206f          	j	b000 <fromhost+0x2bc0>
    80b0:	1500306f          	j	b200 <fromhost+0x2dc0>
    80b4:	34c0306f          	j	b400 <fromhost+0x2fc0>
    80b8:	5480306f          	j	b600 <fromhost+0x31c0>
    80bc:	7440306f          	j	b800 <fromhost+0x33c0>
    80c0:	1410306f          	j	ba00 <fromhost+0x35c0>
    80c4:	33d0306f          	j	bc00 <fromhost+0x37c0>
    80c8:	5390306f          	j	be00 <fromhost+0x39c0>
    80cc:	7350306f          	j	c000 <fromhost+0x3bc0>
    80d0:	4310606f          	j	ed00 <fromhost+0x68c0>
    80d4:	72d0606f          	j	f000 <fromhost+0x6bc0>
    80d8:	1280706f          	j	f200 <fromhost+0x6dc0>
    80dc:	7240406f          	j	c800 <fromhost+0x43c0>
    80e0:	1210406f          	j	ca00 <fromhost+0x45c0>
    80e4:	31d0406f          	j	cc00 <fromhost+0x47c0>
    80e8:	5190406f          	j	ce00 <fromhost+0x49c0>
    80ec:	7150406f          	j	d000 <fromhost+0x4bc0>
    80f0:	1100506f          	j	d200 <fromhost+0x4dc0>
    80f4:	30c0506f          	j	d400 <fromhost+0x4fc0>
    80f8:	5080506f          	j	d600 <fromhost+0x51c0>
    80fc:	7040506f          	j	d800 <fromhost+0x53c0>
    8100:	1010506f          	j	da00 <fromhost+0x55c0>
    8104:	2fd0506f          	j	dc00 <fromhost+0x57c0>
    8108:	4f90506f          	j	de00 <fromhost+0x59c0>
    810c:	6f50506f          	j	e000 <fromhost+0x5bc0>
    8110:	0f00606f          	j	e200 <fromhost+0x5dc0>
    8114:	2ec0606f          	j	e400 <fromhost+0x5fc0>
    8118:	4e80606f          	j	e600 <fromhost+0x61c0>
    811c:	6e40606f          	j	e800 <fromhost+0x63c0>
    8120:	0e10606f          	j	ea00 <fromhost+0x65c0>
    8124:	2dd0606f          	j	ec00 <fromhost+0x67c0>
    8128:	4d90606f          	j	ee00 <fromhost+0x69c0>
    812c:	6d50606f          	j	f000 <fromhost+0x6bc0>
    8130:	0d00706f          	j	f200 <fromhost+0x6dc0>
    8134:	2cc0706f          	j	f400 <fromhost+0x6fc0>
    8138:	4c80706f          	j	f600 <fromhost+0x71c0>
    813c:	6c40706f          	j	f800 <fromhost+0x73c0>
    8140:	0c10706f          	j	fa00 <fromhost+0x75c0>
    8144:	2bd0706f          	j	fc00 <fromhost+0x77c0>
    8148:	4b90706f          	j	fe00 <_end>

Disassembly of section .text.init:

00008200 <_start>:
    8200:	a011                	j	8204 <reset_vector>
    8202:	0001                	nop

00008204 <reset_vector>:
    8204:	4081                	li	ra,0
    8206:	4101                	li	sp,0
    8208:	4181                	li	gp,0
    820a:	4201                	li	tp,0
    820c:	4281                	li	t0,0
    820e:	4301                	li	t1,0
    8210:	4381                	li	t2,0
    8212:	4401                	li	s0,0
    8214:	4481                	li	s1,0
    8216:	4501                	li	a0,0
    8218:	4581                	li	a1,0
    821a:	4601                	li	a2,0
    821c:	4681                	li	a3,0
    821e:	4701                	li	a4,0
    8220:	4781                	li	a5,0
    8222:	4801                	li	a6,0
    8224:	4881                	li	a7,0
    8226:	4901                	li	s2,0
    8228:	4981                	li	s3,0
    822a:	4a01                	li	s4,0
    822c:	4a81                	li	s5,0
    822e:	4b01                	li	s6,0
    8230:	4b81                	li	s7,0
    8232:	4c01                	li	s8,0
    8234:	4c81                	li	s9,0
    8236:	4d01                	li	s10,0
    8238:	4d81                	li	s11,0
    823a:	4e01                	li	t3,0
    823c:	4e81                	li	t4,0
    823e:	4f01                	li	t5,0
    8240:	4f81                	li	t6,0
    8242:	4181                	li	gp,0
    8244:	00000297          	auipc	t0,0x0
    8248:	00a28293          	addi	t0,t0,10 # 824e <saradc_testbench_start>
    824c:	8282                	jr	t0

0000824e <saradc_testbench_start>:
    824e:	6515                	lui	a0,0x5
    8250:	b0050513          	addi	a0,a0,-1280 # 4b00 <_start-0x3700>
    8254:	4181                	li	gp,0
    8256:	024000ef          	jal	827a <init_saradc_peripheral>
    825a:	034000ef          	jal	828e <test_control_register>
    825e:	00301863          	bne	zero,gp,826e <pass>

00008262 <fail>:
    8262:	deadc537          	lui	a0,0xdeadc
    8266:	eef50513          	addi	a0,a0,-273 # deadbeef <_end+0xdeacc0ef>
    826a:	a009                	j	826c <_fail_label>

0000826c <_fail_label>:
    826c:	a001                	j	826c <_fail_label>

0000826e <pass>:
    826e:	cafec537          	lui	a0,0xcafec
    8272:	abe50513          	addi	a0,a0,-1346 # cafebabe <_end+0xcafdbcbe>
    8276:	a009                	j	8278 <_pass_label>

00008278 <_pass_label>:
    8278:	a001                	j	8278 <_pass_label>

0000827a <init_saradc_peripheral>:
    827a:	4285                	li	t0,1
    827c:	00552023          	sw	t0,0(a0)
    8280:	4281                	li	t0,0
    8282:	00552023          	sw	t0,0(a0)
    8286:	4299                	li	t0,6
    8288:	00552223          	sw	t0,4(a0)
    828c:	8082                	ret

0000828e <test_control_register>:
    828e:	8906                	mv	s2,ra
    8290:	0185                	addi	gp,gp,1
    8292:	4401                	li	s0,0
    8294:	1ff00993          	li	s3,511
    8298:	c100                	sw	s0,0(a0)
    829a:	00052a03          	lw	s4,0(a0)
    829e:	013a7a33          	and	s4,s4,s3
    82a2:	fd4410e3          	bne	s0,s4,8262 <fail>
    82a6:	0185                	addi	gp,gp,1
    82a8:	1ff00413          	li	s0,511
    82ac:	c100                	sw	s0,0(a0)
    82ae:	00052a03          	lw	s4,0(a0)
    82b2:	013a7a33          	and	s4,s4,s3
    82b6:	fb4416e3          	bne	s0,s4,8262 <fail>
    82ba:	0185                	addi	gp,gp,1
    82bc:	15500413          	li	s0,341
    82c0:	c100                	sw	s0,0(a0)
    82c2:	00052a03          	lw	s4,0(a0)
    82c6:	013a7a33          	and	s4,s4,s3
    82ca:	f9441ce3          	bne	s0,s4,8262 <fail>
    82ce:	0185                	addi	gp,gp,1
    82d0:	0aa00413          	li	s0,170
    82d4:	c100                	sw	s0,0(a0)
    82d6:	00052a03          	lw	s4,0(a0)
    82da:	013a7a33          	and	s4,s4,s3
    82de:	f94412e3          	bne	s0,s4,8262 <fail>
    82e2:	4281                	li	t0,0
    82e4:	4325                	li	t1,9

000082e6 <walk_1_saradc_cr>:
    82e6:	0185                	addi	gp,gp,1
    82e8:	4405                	li	s0,1
    82ea:	00541433          	sll	s0,s0,t0
    82ee:	01347433          	and	s0,s0,s3
    82f2:	c100                	sw	s0,0(a0)
    82f4:	00052a03          	lw	s4,0(a0)
    82f8:	013a7a33          	and	s4,s4,s3
    82fc:	f74413e3          	bne	s0,s4,8262 <fail>
    8300:	0285                	addi	t0,t0,1
    8302:	fe62c2e3          	blt	t0,t1,82e6 <walk_1_saradc_cr>
    8306:	4281                	li	t0,0
    8308:	4325                	li	t1,9

0000830a <walk_0_saradc_cr>:
    830a:	0185                	addi	gp,gp,1
    830c:	4405                	li	s0,1
    830e:	00541433          	sll	s0,s0,t0
    8312:	fff44413          	not	s0,s0
    8316:	01347433          	and	s0,s0,s3
    831a:	c100                	sw	s0,0(a0)
    831c:	00052a03          	lw	s4,0(a0)
    8320:	013a7a33          	and	s4,s4,s3
    8324:	f3441fe3          	bne	s0,s4,8262 <fail>
    8328:	0285                	addi	t0,t0,1
    832a:	fe62c0e3          	blt	t0,t1,830a <walk_0_saradc_cr>
    832e:	0185                	addi	gp,gp,1
    8330:	4405                	li	s0,1
    8332:	c100                	sw	s0,0(a0)
    8334:	00052a03          	lw	s4,0(a0)
    8338:	013a7a33          	and	s4,s4,s3
    833c:	f34413e3          	bne	s0,s4,8262 <fail>
    8340:	0185                	addi	gp,gp,1
    8342:	4479                	li	s0,30
    8344:	c100                	sw	s0,0(a0)
    8346:	00052a03          	lw	s4,0(a0)
    834a:	013a7a33          	and	s4,s4,s3
    834e:	f1441ae3          	bne	s0,s4,8262 <fail>
    8352:	0185                	addi	gp,gp,1
    8354:	02000413          	li	s0,32
    8358:	c100                	sw	s0,0(a0)
    835a:	00052a03          	lw	s4,0(a0)
    835e:	013a7a33          	and	s4,s4,s3
    8362:	f14410e3          	bne	s0,s4,8262 <fail>
    8366:	0185                	addi	gp,gp,1
    8368:	04000413          	li	s0,64
    836c:	c100                	sw	s0,0(a0)
    836e:	00052a03          	lw	s4,0(a0)
    8372:	013a7a33          	and	s4,s4,s3
    8376:	ef4416e3          	bne	s0,s4,8262 <fail>
    837a:	0185                	addi	gp,gp,1
    837c:	08000413          	li	s0,128
    8380:	c100                	sw	s0,0(a0)
    8382:	00052a03          	lw	s4,0(a0)
    8386:	013a7a33          	and	s4,s4,s3
    838a:	ed441ce3          	bne	s0,s4,8262 <fail>
    838e:	0185                	addi	gp,gp,1
    8390:	10000413          	li	s0,256
    8394:	c100                	sw	s0,0(a0)
    8396:	00052a03          	lw	s4,0(a0)
    839a:	013a7a33          	and	s4,s4,s3
    839e:	ed4412e3          	bne	s0,s4,8262 <fail>
    83a2:	00052023          	sw	zero,0(a0)
    83a6:	80ca                	mv	ra,s2
    83a8:	8082                	ret
    83aa:	0000                	unimp
    83ac:	00000013          	nop

000083b0 <begin_signature>:
    83b0:	deadbeef          	jal	t4,fffe399a <_end+0xfffd3b9a>
    83b4:	babe                	.insn	2, 0xbabe
    83b6:	cafe                	sw	t6,84(sp)
    83b8:	5678                	lw	a4,108(a2)
    83ba:	1234                	addi	a3,sp,296
    83bc:	def0                	sw	a2,124(a3)
    83be:	9abc                	.insn	2, 0x9abc
    83c0:	0000                	unimp
    83c2:	0000                	unimp
    83c4:	ffff                	.insn	2, 0xffff
    83c6:	ffff                	.insn	2, 0xffff
    83c8:	5a5a                	lw	s4,180(sp)
    83ca:	5a5a                	lw	s4,180(sp)
    83cc:	a5a5                	j	8a34 <fromhost+0x5f4>
    83ce:	a5a5                	j	8a36 <fromhost+0x5f6>

000083d0 <end_signature>:
    83d0:	0000                	unimp
    83d2:	0000                	unimp
    83d4:	0000                	unimp
    83d6:	0000                	unimp

Disassembly of section .tohost:

00008400 <tohost>:
    8400:	0000                	unimp
    8402:	0000                	unimp
    8404:	0000                	unimp
    8406:	0000                	unimp
    8408:	0000                	unimp
    840a:	0000                	unimp
    840c:	0000                	unimp
    840e:	0000                	unimp
    8410:	0000                	unimp
    8412:	0000                	unimp
    8414:	0000                	unimp
    8416:	0000                	unimp
    8418:	0000                	unimp
    841a:	0000                	unimp
    841c:	0000                	unimp
    841e:	0000                	unimp
    8420:	0000                	unimp
    8422:	0000                	unimp
    8424:	0000                	unimp
    8426:	0000                	unimp
    8428:	0000                	unimp
    842a:	0000                	unimp
    842c:	0000                	unimp
    842e:	0000                	unimp
    8430:	0000                	unimp
    8432:	0000                	unimp
    8434:	0000                	unimp
    8436:	0000                	unimp
    8438:	0000                	unimp
    843a:	0000                	unimp
    843c:	0000                	unimp
    843e:	0000                	unimp

00008440 <fromhost>:
    8440:	0000                	unimp
    8442:	0000                	unimp
    8444:	0000                	unimp
    8446:	0000                	unimp
