
periph-p-SYSTEM:     file format elf32-littleriscv


Disassembly of section .ivt:

00008000 <.ivt>:
    8000:	a01fd06f          	j	5a00 <_start-0x2800>
    8004:	bfdfd06f          	j	5c00 <_start-0x2600>
    8008:	df9fd06f          	j	5e00 <_start-0x2400>
    800c:	ff5fd06f          	j	6000 <_start-0x2200>
    8010:	9f0fe06f          	j	6200 <_start-0x2000>
    8014:	becfe06f          	j	6400 <_start-0x1e00>
    8018:	de8fe06f          	j	6600 <_start-0x1c00>
    801c:	fe4fe06f          	j	6800 <_start-0x1a00>
    8020:	9e1fe06f          	j	6a00 <_start-0x1800>
    8024:	3dd0706f          	j	fc00 <fromhost+0x7280>
    8028:	5d90706f          	j	fe00 <_end>
    802c:	fd5fe06f          	j	7000 <_start-0x1200>
    8030:	9d0ff06f          	j	7200 <_start-0x1000>
    8034:	3cc0706f          	j	f400 <fromhost+0x6a80>
    8038:	5c80706f          	j	f600 <fromhost+0x6c80>
    803c:	7c40706f          	j	f800 <fromhost+0x6e80>
    8040:	9c1ff06f          	j	7a00 <_start-0x800>
    8044:	bbdff06f          	j	7c00 <_start-0x600>
    8048:	db9ff06f          	j	7e00 <_start-0x400>
    804c:	fb5ff06f          	j	8000 <_start-0x200>
    8050:	1b00006f          	j	8200 <_start>
    8054:	3ac0006f          	j	8400 <test_clk_divider_updated+0x2c>
    8058:	5a80006f          	j	8600 <irq_walk_loop+0x22>
    805c:	7a40006f          	j	8800 <test_wdt_counter_behavior_updated+0x46>
    8060:	1a10006f          	j	8a00 <fromhost+0x80>
    8064:	39d0006f          	j	8c00 <fromhost+0x280>
    8068:	5990006f          	j	8e00 <fromhost+0x480>
    806c:	7950006f          	j	9000 <fromhost+0x680>
    8070:	1900106f          	j	9200 <fromhost+0x880>
    8074:	38c0106f          	j	9400 <fromhost+0xa80>
    8078:	5880106f          	j	9600 <fromhost+0xc80>
    807c:	7840106f          	j	9800 <fromhost+0xe80>
    8080:	1810106f          	j	9a00 <fromhost+0x1080>
    8084:	37d0106f          	j	9c00 <fromhost+0x1280>
    8088:	5790106f          	j	9e00 <fromhost+0x1480>
    808c:	7750106f          	j	a000 <fromhost+0x1680>
    8090:	1700206f          	j	a200 <fromhost+0x1880>
    8094:	36c0206f          	j	a400 <fromhost+0x1a80>
    8098:	5680206f          	j	a600 <fromhost+0x1c80>
    809c:	7640206f          	j	a800 <fromhost+0x1e80>
    80a0:	1610206f          	j	aa00 <fromhost+0x2080>
    80a4:	35d0206f          	j	ac00 <fromhost+0x2280>
    80a8:	5590206f          	j	ae00 <fromhost+0x2480>
    80ac:	7550206f          	j	b000 <fromhost+0x2680>
    80b0:	1500306f          	j	b200 <fromhost+0x2880>
    80b4:	34c0306f          	j	b400 <fromhost+0x2a80>
    80b8:	5480306f          	j	b600 <fromhost+0x2c80>
    80bc:	7440306f          	j	b800 <fromhost+0x2e80>
    80c0:	1410306f          	j	ba00 <fromhost+0x3080>
    80c4:	33d0306f          	j	bc00 <fromhost+0x3280>
    80c8:	5390306f          	j	be00 <fromhost+0x3480>
    80cc:	7350306f          	j	c000 <fromhost+0x3680>
    80d0:	4310606f          	j	ed00 <fromhost+0x6380>
    80d4:	72d0606f          	j	f000 <fromhost+0x6680>
    80d8:	1280706f          	j	f200 <fromhost+0x6880>
    80dc:	7240406f          	j	c800 <fromhost+0x3e80>
    80e0:	1210406f          	j	ca00 <fromhost+0x4080>
    80e4:	31d0406f          	j	cc00 <fromhost+0x4280>
    80e8:	5190406f          	j	ce00 <fromhost+0x4480>
    80ec:	7150406f          	j	d000 <fromhost+0x4680>
    80f0:	1100506f          	j	d200 <fromhost+0x4880>
    80f4:	30c0506f          	j	d400 <fromhost+0x4a80>
    80f8:	5080506f          	j	d600 <fromhost+0x4c80>
    80fc:	7040506f          	j	d800 <fromhost+0x4e80>
    8100:	1010506f          	j	da00 <fromhost+0x5080>
    8104:	2fd0506f          	j	dc00 <fromhost+0x5280>
    8108:	4f90506f          	j	de00 <fromhost+0x5480>
    810c:	6f50506f          	j	e000 <fromhost+0x5680>
    8110:	0f00606f          	j	e200 <fromhost+0x5880>
    8114:	2ec0606f          	j	e400 <fromhost+0x5a80>
    8118:	4e80606f          	j	e600 <fromhost+0x5c80>
    811c:	6e40606f          	j	e800 <fromhost+0x5e80>
    8120:	0e10606f          	j	ea00 <fromhost+0x6080>
    8124:	2dd0606f          	j	ec00 <fromhost+0x6280>
    8128:	4d90606f          	j	ee00 <fromhost+0x6480>
    812c:	6d50606f          	j	f000 <fromhost+0x6680>
    8130:	0d00706f          	j	f200 <fromhost+0x6880>
    8134:	2cc0706f          	j	f400 <fromhost+0x6a80>
    8138:	4c80706f          	j	f600 <fromhost+0x6c80>
    813c:	6c40706f          	j	f800 <fromhost+0x6e80>
    8140:	0c10706f          	j	fa00 <fromhost+0x7080>
    8144:	2bd0706f          	j	fc00 <fromhost+0x7280>
    8148:	4b90706f          	j	fe00 <_end>

Disassembly of section .text.init:

00008200 <_start>:
    8200:	a011                	j	8204 <reset_vector>
    8202:	0001                	nop

00008204 <reset_vector>:
    8204:	4081                	li	ra,0
    8206:	4101                	li	sp,0
    8208:	4181                	li	gp,0
    820a:	4201                	li	tp,0
    820c:	4281                	li	t0,0
    820e:	4301                	li	t1,0
    8210:	4381                	li	t2,0
    8212:	4401                	li	s0,0
    8214:	4481                	li	s1,0
    8216:	4501                	li	a0,0
    8218:	4581                	li	a1,0
    821a:	4601                	li	a2,0
    821c:	4681                	li	a3,0
    821e:	4701                	li	a4,0
    8220:	4781                	li	a5,0
    8222:	4801                	li	a6,0
    8224:	4881                	li	a7,0
    8226:	4901                	li	s2,0
    8228:	4981                	li	s3,0
    822a:	4a01                	li	s4,0
    822c:	4a81                	li	s5,0
    822e:	4b01                	li	s6,0
    8230:	4b81                	li	s7,0
    8232:	4c01                	li	s8,0
    8234:	4c81                	li	s9,0
    8236:	4d01                	li	s10,0
    8238:	4d81                	li	s11,0
    823a:	4e01                	li	t3,0
    823c:	4e81                	li	t4,0
    823e:	4f01                	li	t5,0
    8240:	4f81                	li	t6,0
    8242:	4181                	li	gp,0
    8244:	00000297          	auipc	t0,0x0
    8248:	00a28293          	addi	t0,t0,10 # 824e <system_init>
    824c:	8282                	jr	t0

0000824e <system_init>:
    824e:	6515                	lui	a0,0x5
    8250:	90050513          	addi	a0,a0,-1792 # 4900 <_start-0x3900>
    8254:	00052023          	sw	zero,0(a0)
    8258:	00052223          	sw	zero,4(a0)
    825c:	00052423          	sw	zero,8(a0)
    8260:	00052a23          	sw	zero,20(a0)
    8264:	00052c23          	sw	zero,24(a0)
    8268:	00052e23          	sw	zero,28(a0)
    826c:	02052623          	sw	zero,44(a0)
    8270:	4181                	li	gp,0
    8272:	04c000ef          	jal	82be <test_register_boundaries>
    8276:	0ea000ef          	jal	8360 <test_clk_control_updated>
    827a:	15a000ef          	jal	83d4 <test_clk_divider_updated>
    827e:	1ba000ef          	jal	8438 <test_mem_power_updated>
    8282:	1ee000ef          	jal	8470 <test_memory_access_with_power>
    8286:	252000ef          	jal	84d8 <test_crc_state_updated>
    828a:	2ae000ef          	jal	8538 <test_irq_comprehensive_updated>
    828e:	39e000ef          	jal	862c <test_dco_bias_registers>
    8292:	41c000ef          	jal	86ae <test_wdt_comprehensive_updated>
    8296:	524000ef          	jal	87ba <test_wdt_counter_behavior_updated>
    829a:	5ac000ef          	jal	8846 <test_global_irq_control>
    829e:	5f4000ef          	jal	8892 <test_register_reset_behavior_updated>

000082a2 <all_sys_tests_passed>:
    82a2:	00301863          	bne	zero,gp,82b2 <pass>

000082a6 <fail>:
    82a6:	deadc537          	lui	a0,0xdeadc
    82aa:	eef50513          	addi	a0,a0,-273 # deadbeef <_end+0xdeacc0ef>
    82ae:	a009                	j	82b0 <_fail_label>

000082b0 <_fail_label>:
    82b0:	a001                	j	82b0 <_fail_label>

000082b2 <pass>:
    82b2:	cafec537          	lui	a0,0xcafec
    82b6:	abe50513          	addi	a0,a0,-1346 # cafebabe <_end+0xcafdbcbe>
    82ba:	a009                	j	82bc <_pass_label>

000082bc <_pass_label>:
    82bc:	a001                	j	82bc <_pass_label>

000082be <test_register_boundaries>:
    82be:	8486                	mv	s1,ra
    82c0:	0185                	addi	gp,gp,1
    82c2:	18000993          	li	s3,384
    82c6:	01352023          	sw	s3,0(a0)
    82ca:	00052283          	lw	t0,0(a0)
    82ce:	0132f2b3          	and	t0,t0,s3
    82d2:	fd329ae3          	bne	t0,s3,82a6 <fail>
    82d6:	0185                	addi	gp,gp,1
    82d8:	03f00993          	li	s3,63
    82dc:	01352223          	sw	s3,4(a0)
    82e0:	00452283          	lw	t0,4(a0)
    82e4:	0132f2b3          	and	t0,t0,s3
    82e8:	fb329fe3          	bne	t0,s3,82a6 <fail>
    82ec:	0185                	addi	gp,gp,1
    82ee:	499d                	li	s3,7
    82f0:	0fd9f993          	andi	s3,s3,253
    82f4:	01352423          	sw	s3,8(a0)
    82f8:	00852283          	lw	t0,8(a0)
    82fc:	0132f2b3          	and	t0,t0,s3
    8300:	fb3293e3          	bne	t0,s3,82a6 <fail>
    8304:	0185                	addi	gp,gp,1
    8306:	0badc9b7          	lui	s3,0xbadc
    830a:	0de98993          	addi	s3,s3,222 # badc0de <_end+0xbacc2de>
    830e:	03352823          	sw	s3,48(a0)
    8312:	0ff00993          	li	s3,255
    8316:	03352a23          	sw	s3,52(a0)
    831a:	03452283          	lw	t0,52(a0)
    831e:	f80294e3          	bnez	t0,82a6 <fail>
    8322:	0185                	addi	gp,gp,1
    8324:	5f3769b7          	lui	s3,0x5f376
    8328:	9df98993          	addi	s3,s3,-1569 # 5f3759df <_end+0x5f365bdf>
    832c:	03352823          	sw	s3,48(a0)
    8330:	07e00993          	li	s3,126
    8334:	03352a23          	sw	s3,52(a0)
    8338:	03452283          	lw	t0,52(a0)
    833c:	0ff2f293          	zext.b	t0,t0
    8340:	f73293e3          	bne	t0,s3,82a6 <fail>
    8344:	00052023          	sw	zero,0(a0)
    8348:	00052423          	sw	zero,8(a0)
    834c:	5f3769b7          	lui	s3,0x5f376
    8350:	9df98993          	addi	s3,s3,-1569 # 5f3759df <_end+0x5f365bdf>
    8354:	03352823          	sw	s3,48(a0)
    8358:	02052a23          	sw	zero,52(a0)
    835c:	80a6                	mv	ra,s1
    835e:	8082                	ret

00008360 <test_clk_control_updated>:
    8360:	8486                	mv	s1,ra
    8362:	0185                	addi	gp,gp,1
    8364:	4985                	li	s3,1
    8366:	01352023          	sw	s3,0(a0)
    836a:	00052283          	lw	t0,0(a0)
    836e:	0032f293          	andi	t0,t0,3
    8372:	f3329ae3          	bne	t0,s3,82a6 <fail>
    8376:	0185                	addi	gp,gp,1
    8378:	4991                	li	s3,4
    837a:	01352023          	sw	s3,0(a0)
    837e:	00052283          	lw	t0,0(a0)
    8382:	00c2f293          	andi	t0,t0,12
    8386:	f33290e3          	bne	t0,s3,82a6 <fail>
    838a:	0185                	addi	gp,gp,1
    838c:	03000993          	li	s3,48
    8390:	01352023          	sw	s3,0(a0)
    8394:	00052283          	lw	t0,0(a0)
    8398:	0132f2b3          	and	t0,t0,s3
    839c:	f13295e3          	bne	t0,s3,82a6 <fail>
    83a0:	0185                	addi	gp,gp,1
    83a2:	08000993          	li	s3,128
    83a6:	01352023          	sw	s3,0(a0)
    83aa:	00052283          	lw	t0,0(a0)
    83ae:	0802f293          	andi	t0,t0,128
    83b2:	ef329ae3          	bne	t0,s3,82a6 <fail>
    83b6:	0185                	addi	gp,gp,1
    83b8:	10000993          	li	s3,256
    83bc:	01352023          	sw	s3,0(a0)
    83c0:	00052283          	lw	t0,0(a0)
    83c4:	1002f293          	andi	t0,t0,256
    83c8:	ed329fe3          	bne	t0,s3,82a6 <fail>
    83cc:	00052023          	sw	zero,0(a0)
    83d0:	80a6                	mv	ra,s1
    83d2:	8082                	ret

000083d4 <test_clk_divider_updated>:
    83d4:	8486                	mv	s1,ra
    83d6:	0185                	addi	gp,gp,1
    83d8:	4981                	li	s3,0
    83da:	01352223          	sw	s3,4(a0)
    83de:	00452283          	lw	t0,4(a0)
    83e2:	ed3292e3          	bne	t0,s3,82a6 <fail>
    83e6:	0185                	addi	gp,gp,1
    83e8:	4985                	li	s3,1
    83ea:	01352223          	sw	s3,4(a0)
    83ee:	00452283          	lw	t0,4(a0)
    83f2:	0072f293          	andi	t0,t0,7
    83f6:	eb3298e3          	bne	t0,s3,82a6 <fail>
    83fa:	0185                	addi	gp,gp,1
    83fc:	49a1                	li	s3,8
    83fe:	01352223          	sw	s3,4(a0)
    8402:	00452283          	lw	t0,4(a0)
    8406:	0382f293          	andi	t0,t0,56
    840a:	e9329ee3          	bne	t0,s3,82a6 <fail>
    840e:	0185                	addi	gp,gp,1
    8410:	03f00993          	li	s3,63
    8414:	01352223          	sw	s3,4(a0)
    8418:	00452283          	lw	t0,4(a0)
    841c:	e93295e3          	bne	t0,s3,82a6 <fail>
    8420:	0185                	addi	gp,gp,1
    8422:	49e9                	li	s3,26
    8424:	01352223          	sw	s3,4(a0)
    8428:	00452283          	lw	t0,4(a0)
    842c:	e7329de3          	bne	t0,s3,82a6 <fail>
    8430:	00052223          	sw	zero,4(a0)
    8434:	80a6                	mv	ra,s1
    8436:	8082                	ret

00008438 <test_mem_power_updated>:
    8438:	8486                	mv	s1,ra
    843a:	0185                	addi	gp,gp,1
    843c:	4985                	li	s3,1
    843e:	01352423          	sw	s3,8(a0)
    8442:	00852283          	lw	t0,8(a0)
    8446:	0012f293          	andi	t0,t0,1
    844a:	e4028ee3          	beqz	t0,82a6 <fail>
    844e:	0185                	addi	gp,gp,1
    8450:	0185                	addi	gp,gp,1
    8452:	4991                	li	s3,4
    8454:	01352423          	sw	s3,8(a0)
    8458:	00852283          	lw	t0,8(a0)
    845c:	0062f293          	andi	t0,t0,6
    8460:	e53293e3          	bne	t0,s3,82a6 <fail>
    8464:	0185                	addi	gp,gp,1
    8466:	0185                	addi	gp,gp,1
    8468:	00052423          	sw	zero,8(a0)
    846c:	80a6                	mv	ra,s1
    846e:	8082                	ret

00008470 <test_memory_access_with_power>:
    8470:	8486                	mv	s1,ra
    8472:	65a1                	lui	a1,0x8
    8474:	6631                	lui	a2,0xc
    8476:	0185                	addi	gp,gp,1
    8478:	00052423          	sw	zero,8(a0)
    847c:	deadc9b7          	lui	s3,0xdeadc
    8480:	eef98993          	addi	s3,s3,-273 # deadbeef <_end+0xdeacc0ef>
    8484:	0135a023          	sw	s3,0(a1) # 8000 <_start-0x200>
    8488:	0005a283          	lw	t0,0(a1)
    848c:	e1329de3          	bne	t0,s3,82a6 <fail>
    8490:	0185                	addi	gp,gp,1
    8492:	123459b7          	lui	s3,0x12345
    8496:	67898993          	addi	s3,s3,1656 # 12345678 <_end+0x12335878>
    849a:	01362023          	sw	s3,0(a2) # c000 <fromhost+0x3680>
    849e:	00062283          	lw	t0,0(a2)
    84a2:	e13292e3          	bne	t0,s3,82a6 <fail>
    84a6:	0185                	addi	gp,gp,1
    84a8:	0185                	addi	gp,gp,1
    84aa:	55aa59b7          	lui	s3,0x55aa5
    84ae:	5aa98993          	addi	s3,s3,1450 # 55aa55aa <_end+0x55a957aa>
    84b2:	0135a223          	sw	s3,4(a1)
    84b6:	0045a283          	lw	t0,4(a1)
    84ba:	df3296e3          	bne	t0,s3,82a6 <fail>
    84be:	0185                	addi	gp,gp,1
    84c0:	0005a283          	lw	t0,0(a1)
    84c4:	deadc9b7          	lui	s3,0xdeadc
    84c8:	eef98993          	addi	s3,s3,-273 # deadbeef <_end+0xdeacc0ef>
    84cc:	dd329de3          	bne	t0,s3,82a6 <fail>
    84d0:	00052423          	sw	zero,8(a0)
    84d4:	80a6                	mv	ra,s1
    84d6:	8082                	ret

000084d8 <test_crc_state_updated>:
    84d8:	8486                	mv	s1,ra
    84da:	0185                	addi	gp,gp,1
    84dc:	69c1                	lui	s3,0x10
    84de:	19fd                	addi	s3,s3,-1 # ffff <_end+0x1ff>
    84e0:	01352823          	sw	s3,16(a0)
    84e4:	0185                	addi	gp,gp,1
    84e6:	4981                	li	s3,0
    84e8:	01352623          	sw	s3,12(a0)
    84ec:	01052a03          	lw	s4,16(a0)
    84f0:	0185                	addi	gp,gp,1
    84f2:	0ff00993          	li	s3,255
    84f6:	01352623          	sw	s3,12(a0)
    84fa:	01052283          	lw	t0,16(a0)
    84fe:	db4284e3          	beq	t0,s4,82a6 <fail>
    8502:	0185                	addi	gp,gp,1
    8504:	0aa00993          	li	s3,170
    8508:	01352623          	sw	s3,12(a0)
    850c:	01052a03          	lw	s4,16(a0)
    8510:	01352623          	sw	s3,12(a0)
    8514:	01052283          	lw	t0,16(a0)
    8518:	d94287e3          	beq	t0,s4,82a6 <fail>
    851c:	0185                	addi	gp,gp,1
    851e:	4981                	li	s3,0
    8520:	01352823          	sw	s3,16(a0)
    8524:	05500993          	li	s3,85
    8528:	01352623          	sw	s3,12(a0)
    852c:	01052283          	lw	t0,16(a0)
    8530:	d6028be3          	beqz	t0,82a6 <fail>
    8534:	80a6                	mv	ra,s1
    8536:	8082                	ret

00008538 <test_irq_comprehensive_updated>:
    8538:	8486                	mv	s1,ra
    853a:	0185                	addi	gp,gp,1
    853c:	4985                	li	s3,1
    853e:	01352a23          	sw	s3,20(a0)
    8542:	01452283          	lw	t0,20(a0)
    8546:	d73290e3          	bne	t0,s3,82a6 <fail>
    854a:	0185                	addi	gp,gp,1
    854c:	800009b7          	lui	s3,0x80000
    8550:	01352a23          	sw	s3,20(a0)
    8554:	01452283          	lw	t0,20(a0)
    8558:	d53297e3          	bne	t0,s3,82a6 <fail>
    855c:	0185                	addi	gp,gp,1
    855e:	aaaab9b7          	lui	s3,0xaaaab
    8562:	aaa98993          	addi	s3,s3,-1366 # aaaaaaaa <_end+0xaaa9acaa>
    8566:	01352c23          	sw	s3,24(a0)
    856a:	01852283          	lw	t0,24(a0)
    856e:	d3329ce3          	bne	t0,s3,82a6 <fail>
    8572:	0185                	addi	gp,gp,1
    8574:	555559b7          	lui	s3,0x55555
    8578:	55598993          	addi	s3,s3,1365 # 55555555 <_end+0x55545755>
    857c:	01352e23          	sw	s3,28(a0)
    8580:	01c52283          	lw	t0,28(a0)
    8584:	00080937          	lui	s2,0x80
    8588:	197d                	addi	s2,s2,-1 # 7ffff <_end+0x701ff>
    858a:	0129f9b3          	and	s3,s3,s2
    858e:	d1329ce3          	bne	t0,s3,82a6 <fail>
    8592:	0185                	addi	gp,gp,1
    8594:	0f0f19b7          	lui	s3,0xf0f1
    8598:	f0f98993          	addi	s3,s3,-241 # f0f0f0f <_end+0xf0e110f>
    859c:	03352023          	sw	s3,32(a0)
    85a0:	02052283          	lw	t0,32(a0)
    85a4:	d13291e3          	bne	t0,s3,82a6 <fail>
    85a8:	0185                	addi	gp,gp,1
    85aa:	f0f0f9b7          	lui	s3,0xf0f0f
    85ae:	0f098993          	addi	s3,s3,240 # f0f0f0f0 <_end+0xf0eff2f0>
    85b2:	03352223          	sw	s3,36(a0)
    85b6:	02452283          	lw	t0,36(a0)
    85ba:	cf3296e3          	bne	t0,s3,82a6 <fail>
    85be:	0185                	addi	gp,gp,1
    85c0:	00052a23          	sw	zero,20(a0)
    85c4:	00052c23          	sw	zero,24(a0)
    85c8:	00052e23          	sw	zero,28(a0)
    85cc:	01452283          	lw	t0,20(a0)
    85d0:	cc029be3          	bnez	t0,82a6 <fail>
    85d4:	0185                	addi	gp,gp,1
    85d6:	4985                	li	s3,1
    85d8:	02000313          	li	t1,32
    85dc:	4381                	li	t2,0

000085de <irq_walk_loop>:
    85de:	01352a23          	sw	s3,20(a0)
    85e2:	01452283          	lw	t0,20(a0)
    85e6:	cd3290e3          	bne	t0,s3,82a6 <fail>
    85ea:	0986                	slli	s3,s3,0x1
    85ec:	0385                	addi	t2,t2,1
    85ee:	fe63c8e3          	blt	t2,t1,85de <irq_walk_loop>
    85f2:	0185                	addi	gp,gp,1
    85f4:	59fd                	li	s3,-1
    85f6:	01352a23          	sw	s3,20(a0)
    85fa:	01352c23          	sw	s3,24(a0)
    85fe:	01452283          	lw	t0,20(a0)
    8602:	cb3292e3          	bne	t0,s3,82a6 <fail>
    8606:	0185                	addi	gp,gp,1
    8608:	00052a23          	sw	zero,20(a0)
    860c:	00052c23          	sw	zero,24(a0)
    8610:	00052e23          	sw	zero,28(a0)
    8614:	02052023          	sw	zero,32(a0)
    8618:	02052223          	sw	zero,36(a0)
    861c:	02052423          	sw	zero,40(a0)
    8620:	01452283          	lw	t0,20(a0)
    8624:	c80291e3          	bnez	t0,82a6 <fail>
    8628:	80a6                	mv	ra,s1
    862a:	8082                	ret

0000862c <test_dco_bias_registers>:
    862c:	8486                	mv	s1,ra
    862e:	6b05                	lui	s6,0x1
    8630:	1b7d                	addi	s6,s6,-1 # fff <_start-0x7201>
    8632:	0185                	addi	gp,gp,1
    8634:	6985                	lui	s3,0x1
    8636:	19fd                	addi	s3,s3,-1 # fff <_start-0x7201>
    8638:	05352023          	sw	s3,64(a0)
    863c:	04052283          	lw	t0,64(a0)
    8640:	0162f2b3          	and	t0,t0,s6
    8644:	c73291e3          	bne	t0,s3,82a6 <fail>
    8648:	0185                	addi	gp,gp,1
    864a:	55500993          	li	s3,1365
    864e:	05352023          	sw	s3,64(a0)
    8652:	04052283          	lw	t0,64(a0)
    8656:	0162f2b3          	and	t0,t0,s6
    865a:	c53296e3          	bne	t0,s3,82a6 <fail>
    865e:	0185                	addi	gp,gp,1
    8660:	6985                	lui	s3,0x1
    8662:	19fd                	addi	s3,s3,-1 # fff <_start-0x7201>
    8664:	05352223          	sw	s3,68(a0)
    8668:	04452283          	lw	t0,68(a0)
    866c:	0162f2b3          	and	t0,t0,s6
    8670:	c3329be3          	bne	t0,s3,82a6 <fail>
    8674:	0185                	addi	gp,gp,1
    8676:	6985                	lui	s3,0x1
    8678:	aaa98993          	addi	s3,s3,-1366 # aaa <_start-0x7756>
    867c:	05352223          	sw	s3,68(a0)
    8680:	04452283          	lw	t0,68(a0)
    8684:	0162f2b3          	and	t0,t0,s6
    8688:	c1329fe3          	bne	t0,s3,82a6 <fail>
    868c:	0185                	addi	gp,gp,1
    868e:	60000993          	li	s3,1536
    8692:	05352023          	sw	s3,64(a0)
    8696:	60000993          	li	s3,1536
    869a:	05352223          	sw	s3,68(a0)
    869e:	04052283          	lw	t0,64(a0)
    86a2:	60000313          	li	t1,1536
    86a6:	c06290e3          	bne	t0,t1,82a6 <fail>
    86aa:	80a6                	mv	ra,s1
    86ac:	8082                	ret

000086ae <test_wdt_comprehensive_updated>:
    86ae:	8486                	mv	s1,ra
    86b0:	4985                	li	s3,1
    86b2:	01352a23          	sw	s3,20(a0)
    86b6:	4985                	li	s3,1
    86b8:	03352623          	sw	s3,44(a0)
    86bc:	0185                	addi	gp,gp,1
    86be:	badc19b7          	lui	s3,0xbadc1
    86c2:	19f9                	addi	s3,s3,-2 # badc0ffe <_end+0xbadb11fe>
    86c4:	03352823          	sw	s3,48(a0)
    86c8:	0fc00993          	li	s3,252
    86cc:	03352a23          	sw	s3,52(a0)
    86d0:	03452283          	lw	t0,52(a0)
    86d4:	bc0299e3          	bnez	t0,82a6 <fail>
    86d8:	0185                	addi	gp,gp,1
    86da:	5f3769b7          	lui	s3,0x5f376
    86de:	9df98993          	addi	s3,s3,-1569 # 5f3759df <_end+0x5f365bdf>
    86e2:	03352823          	sw	s3,48(a0)
    86e6:	0fe00993          	li	s3,254
    86ea:	03352a23          	sw	s3,52(a0)
    86ee:	03452283          	lw	t0,52(a0)
    86f2:	0802f293          	andi	t0,t0,128
    86f6:	ba0288e3          	beqz	t0,82a6 <fail>
    86fa:	0185                	addi	gp,gp,1
    86fc:	a0c8a9b7          	lui	s3,0xa0c8a
    8700:	62098993          	addi	s3,s3,1568 # a0c8a620 <_end+0xa0c7a820>
    8704:	03352823          	sw	s3,48(a0)
    8708:	206000ef          	jal	890e <wait_short>
    870c:	03c52283          	lw	t0,60(a0)
    8710:	06400313          	li	t1,100
    8714:	b85349e3          	blt	t1,t0,82a6 <fail>
    8718:	0185                	addi	gp,gp,1
    871a:	5f3769b7          	lui	s3,0x5f376
    871e:	9df98993          	addi	s3,s3,-1569 # 5f3759df <_end+0x5f365bdf>
    8722:	03352823          	sw	s3,48(a0)
    8726:	08e00993          	li	s3,142
    872a:	03352a23          	sw	s3,52(a0)
    872e:	03452283          	lw	t0,52(a0)
    8732:	07c2f293          	andi	t0,t0,124
    8736:	4331                	li	t1,12
    8738:	b66297e3          	bne	t0,t1,82a6 <fail>
    873c:	0185                	addi	gp,gp,1
    873e:	0185                	addi	gp,gp,1
    8740:	5f3769b7          	lui	s3,0x5f376
    8744:	9df98993          	addi	s3,s3,-1569 # 5f3759df <_end+0x5f365bdf>
    8748:	03352823          	sw	s3,48(a0)
    874c:	02052a23          	sw	zero,52(a0)
    8750:	03452283          	lw	t0,52(a0)
    8754:	b40299e3          	bnez	t0,82a6 <fail>
    8758:	0185                	addi	gp,gp,1
    875a:	5f3769b7          	lui	s3,0x5f376
    875e:	9df98993          	addi	s3,s3,-1569 # 5f3759df <_end+0x5f365bdf>
    8762:	03352823          	sw	s3,48(a0)
    8766:	09c00993          	li	s3,156
    876a:	03352a23          	sw	s3,52(a0)
    876e:	03452283          	lw	t0,52(a0)
    8772:	07c2f313          	andi	t1,t0,124
    8776:	43f1                	li	t2,28
    8778:	b27317e3          	bne	t1,t2,82a6 <fail>
    877c:	0185                	addi	gp,gp,1
    877e:	a0c8a9b7          	lui	s3,0xa0c8a
    8782:	62098993          	addi	s3,s3,1568 # a0c8a620 <_end+0xa0c7a820>
    8786:	03352823          	sw	s3,48(a0)
    878a:	03c52a03          	lw	s4,60(a0)
    878e:	0185                	addi	gp,gp,1
    8790:	17e000ef          	jal	890e <wait_short>
    8794:	03c52283          	lw	t0,60(a0)
    8798:	b05a57e3          	bge	s4,t0,82a6 <fail>
    879c:	0185                	addi	gp,gp,1
    879e:	5f3769b7          	lui	s3,0x5f376
    87a2:	9df98993          	addi	s3,s3,-1569 # 5f3759df <_end+0x5f365bdf>
    87a6:	03352823          	sw	s3,48(a0)
    87aa:	02052a23          	sw	zero,52(a0)
    87ae:	00052a23          	sw	zero,20(a0)
    87b2:	02052623          	sw	zero,44(a0)
    87b6:	80a6                	mv	ra,s1
    87b8:	8082                	ret

000087ba <test_wdt_counter_behavior_updated>:
    87ba:	8486                	mv	s1,ra
    87bc:	4985                	li	s3,1
    87be:	01352a23          	sw	s3,20(a0)
    87c2:	4985                	li	s3,1
    87c4:	03352623          	sw	s3,44(a0)
    87c8:	0185                	addi	gp,gp,1
    87ca:	5f3769b7          	lui	s3,0x5f376
    87ce:	9df98993          	addi	s3,s3,-1569 # 5f3759df <_end+0x5f365bdf>
    87d2:	03352823          	sw	s3,48(a0)
    87d6:	08200993          	li	s3,130
    87da:	03352a23          	sw	s3,52(a0)
    87de:	a0c8a9b7          	lui	s3,0xa0c8a
    87e2:	62098993          	addi	s3,s3,1568 # a0c8a620 <_end+0xa0c7a820>
    87e6:	03352823          	sw	s3,48(a0)
    87ea:	03c52a03          	lw	s4,60(a0)
    87ee:	0185                	addi	gp,gp,1
    87f0:	11e000ef          	jal	890e <wait_short>
    87f4:	03c52283          	lw	t0,60(a0)
    87f8:	aa5a57e3          	bge	s4,t0,82a6 <fail>
    87fc:	0185                	addi	gp,gp,1
    87fe:	a0c8a9b7          	lui	s3,0xa0c8a
    8802:	62098993          	addi	s3,s3,1568 # a0c8a620 <_end+0xa0c7a820>
    8806:	03352823          	sw	s3,48(a0)
    880a:	03c52283          	lw	t0,60(a0)
    880e:	4329                	li	t1,10
    8810:	a8534be3          	blt	t1,t0,82a6 <fail>
    8814:	0185                	addi	gp,gp,1
    8816:	03852283          	lw	t0,56(a0)
    881a:	0185                	addi	gp,gp,1
    881c:	498d                	li	s3,3
    881e:	03352c23          	sw	s3,56(a0)
    8822:	03852283          	lw	t0,56(a0)
    8826:	0032f293          	andi	t0,t0,3
    882a:	5f3769b7          	lui	s3,0x5f376
    882e:	9df98993          	addi	s3,s3,-1569 # 5f3759df <_end+0x5f365bdf>
    8832:	03352823          	sw	s3,48(a0)
    8836:	02052a23          	sw	zero,52(a0)
    883a:	00052a23          	sw	zero,20(a0)
    883e:	02052623          	sw	zero,44(a0)
    8842:	80a6                	mv	ra,s1
    8844:	8082                	ret

00008846 <test_global_irq_control>:
    8846:	8486                	mv	s1,ra
    8848:	0185                	addi	gp,gp,1
    884a:	02052623          	sw	zero,44(a0)
    884e:	02c52283          	lw	t0,44(a0)
    8852:	a4029ae3          	bnez	t0,82a6 <fail>
    8856:	0185                	addi	gp,gp,1
    8858:	4985                	li	s3,1
    885a:	03352623          	sw	s3,44(a0)
    885e:	02c52283          	lw	t0,44(a0)
    8862:	a53292e3          	bne	t0,s3,82a6 <fail>
    8866:	0185                	addi	gp,gp,1
    8868:	02052623          	sw	zero,44(a0)
    886c:	fff00993          	li	s3,-1
    8870:	01352a23          	sw	s3,20(a0)
    8874:	0185                	addi	gp,gp,1
    8876:	02052623          	sw	zero,44(a0)
    887a:	00052a23          	sw	zero,20(a0)
    887e:	00052c23          	sw	zero,24(a0)
    8882:	00052e23          	sw	zero,28(a0)
    8886:	01452283          	lw	t0,20(a0)
    888a:	a0029ee3          	bnez	t0,82a6 <fail>
    888e:	80a6                	mv	ra,s1
    8890:	8082                	ret

00008892 <test_register_reset_behavior_updated>:
    8892:	8486                	mv	s1,ra
    8894:	0185                	addi	gp,gp,1
    8896:	18000993          	li	s3,384
    889a:	01352023          	sw	s3,0(a0)
    889e:	49ed                	li	s3,27
    88a0:	01352223          	sw	s3,4(a0)
    88a4:	0aa00993          	li	s3,170
    88a8:	01352623          	sw	s3,12(a0)
    88ac:	0185                	addi	gp,gp,1
    88ae:	00052283          	lw	t0,0(a0)
    88b2:	18000313          	li	t1,384
    88b6:	9e6298e3          	bne	t0,t1,82a6 <fail>
    88ba:	0185                	addi	gp,gp,1
    88bc:	00452283          	lw	t0,4(a0)
    88c0:	436d                	li	t1,27
    88c2:	9e6292e3          	bne	t0,t1,82a6 <fail>
    88c6:	0185                	addi	gp,gp,1
    88c8:	12300993          	li	s3,291
    88cc:	05352023          	sw	s3,64(a0)
    88d0:	45600993          	li	s3,1110
    88d4:	05352223          	sw	s3,68(a0)
    88d8:	04052283          	lw	t0,64(a0)
    88dc:	12300313          	li	t1,291
    88e0:	9c6293e3          	bne	t0,t1,82a6 <fail>
    88e4:	0185                	addi	gp,gp,1
    88e6:	00052023          	sw	zero,0(a0)
    88ea:	00052223          	sw	zero,4(a0)
    88ee:	00052423          	sw	zero,8(a0)
    88f2:	60000993          	li	s3,1536
    88f6:	05352023          	sw	s3,64(a0)
    88fa:	60000993          	li	s3,1536
    88fe:	05352223          	sw	s3,68(a0)
    8902:	00052283          	lw	t0,0(a0)
    8906:	9a0290e3          	bnez	t0,82a6 <fail>
    890a:	80a6                	mv	ra,s1
    890c:	8082                	ret

0000890e <wait_short>:
    890e:	42a9                	li	t0,10
    8910:	12fd                	addi	t0,t0,-1
    8912:	fe029fe3          	bnez	t0,8910 <wait_short+0x2>
    8916:	8082                	ret
    8918:	0000                	unimp
    891a:	00000013          	nop
    891e:	0001                	nop

00008920 <begin_signature>:
    8920:	deadbeef          	jal	t4,fffe3f0a <_end+0xfffd410a>
    8924:	babe                	.insn	2, 0xbabe
    8926:	cafe                	sw	t6,84(sp)
    8928:	5678                	lw	a4,108(a2)
    892a:	1234                	addi	a3,sp,296
    892c:	def0                	sw	a2,124(a3)
    892e:	9abc                	.insn	2, 0x9abc

00008930 <end_signature>:
    8930:	0000                	unimp
    8932:	0000                	unimp
    8934:	0000                	unimp
    8936:	0000                	unimp
    8938:	0000                	unimp

Disassembly of section .tohost:

00008940 <tohost>:
    8940:	0000                	unimp
    8942:	0000                	unimp
    8944:	0000                	unimp
    8946:	0000                	unimp
    8948:	0000                	unimp
    894a:	0000                	unimp
    894c:	0000                	unimp
    894e:	0000                	unimp
    8950:	0000                	unimp
    8952:	0000                	unimp
    8954:	0000                	unimp
    8956:	0000                	unimp
    8958:	0000                	unimp
    895a:	0000                	unimp
    895c:	0000                	unimp
    895e:	0000                	unimp
    8960:	0000                	unimp
    8962:	0000                	unimp
    8964:	0000                	unimp
    8966:	0000                	unimp
    8968:	0000                	unimp
    896a:	0000                	unimp
    896c:	0000                	unimp
    896e:	0000                	unimp
    8970:	0000                	unimp
    8972:	0000                	unimp
    8974:	0000                	unimp
    8976:	0000                	unimp
    8978:	0000                	unimp
    897a:	0000                	unimp
    897c:	0000                	unimp
    897e:	0000                	unimp

00008980 <fromhost>:
    8980:	0000                	unimp
    8982:	0000                	unimp
    8984:	0000                	unimp
    8986:	0000                	unimp
